target datalayout = "e-m:e-p270:32:32-p271:32:32-p272:64:64-i64:64-i128:128-f80:128-n8:16:32:64-S128"
target triple = "x86_64-pc-linux-gnu"

; Function Attrs: nounwind uwtable
define internal void @unix_mprotect_hint(i32 noundef %0) #0 {
  %2 = alloca i32, align 4
  store i32 %0, ptr %2, align 4, !tbaa !19
  ret void
}

; Function Attrs: nounwind uwtable
define hidden i32 @_mi_prim_commit(ptr noundef %0, i64 noundef %1, ptr noundef %2) #0 {
  %4 = alloca ptr, align 8
  %5 = alloca i64, align 8
  %6 = alloca ptr, align 8
  %7 = alloca i32, align 4
  store ptr %0, ptr %4, align 8, !tbaa !25
  store i64 %1, ptr %5, align 8, !tbaa !8
  store ptr %2, ptr %6, align 8, !tbaa !26
  %8 = load ptr, ptr %6, align 8, !tbaa !26
  store i8 0, ptr %8, align 1, !tbaa !21
  call void @llvm.lifetime.start.p0(i64 4, ptr %7) #6
  %9 = load ptr, ptr %4, align 8, !tbaa !25
  %10 = load i64, ptr %5, align 8, !tbaa !8
  %11 = call i32 @mprotect(ptr noundef %9, i64 noundef %10, i32 noundef 3) #7
  store i32 %11, ptr %7, align 4, !tbaa !19
  %12 = load i32, ptr %7, align 4, !tbaa !19
  %13 = icmp ne i32 %12, 0
  br i1 %13, label %14, label %18

14:                                               ; preds = %3
  %15 = call ptr @__errno_location() #9
  %16 = load i32, ptr %15, align 4, !tbaa !19
  store i32 %16, ptr %7, align 4, !tbaa !19
  %17 = load i32, ptr %7, align 4, !tbaa !19
  call void @unix_mprotect_hint(i32 noundef %17) #8
  br label %18

18:                                               ; preds = %14, %3
  %19 = load i32, ptr %7, align 4, !tbaa !19
  call void @llvm.lifetime.end.p0(i64 4, ptr %7) #6
  ret i32 %19
}